(lp1
ccopy_reg
_reconstructor
p2
(chighScores
Score
p3
c__builtin__
object
p4
NtRp5
(dp6
S'score'
p7
I6125
sS'name'
p8
S' i am op'
p9
sbag2
(g3
g4
NtRp10
(dp11
g7
I5000
sg8
S'robin'
p12
sbag2
(g3
g4
NtRp13
(dp14
g7
I4200
sg8
S'robin'
p15
sbag2
(g3
g4
NtRp16
(dp17
g7
I3450
sg8
S'Z3R0C00L'
p18
sbag2
(g3
g4
NtRp19
(dp20
g7
I3360
sg8
S'robin :('
p21
sba.